
mt-mm/mt-mm_32.riscv:     file format elf64-littleriscv


Disassembly of section .text.init:

0000000080000000 <_start>:
    80000000:	4081                	li	ra,0
    80000002:	4101                	li	sp,0
    80000004:	4181                	li	gp,0
    80000006:	4201                	li	tp,0
    80000008:	4281                	li	t0,0
    8000000a:	4301                	li	t1,0
    8000000c:	4381                	li	t2,0
    8000000e:	4401                	li	s0,0
    80000010:	4481                	li	s1,0
    80000012:	4501                	li	a0,0
    80000014:	4581                	li	a1,0
    80000016:	4601                	li	a2,0
    80000018:	4681                	li	a3,0
    8000001a:	4701                	li	a4,0
    8000001c:	4781                	li	a5,0
    8000001e:	4801                	li	a6,0
    80000020:	4881                	li	a7,0
    80000022:	4901                	li	s2,0
    80000024:	4981                	li	s3,0
    80000026:	4a01                	li	s4,0
    80000028:	4a81                	li	s5,0
    8000002a:	4b01                	li	s6,0
    8000002c:	4b81                	li	s7,0
    8000002e:	4c01                	li	s8,0
    80000030:	4c81                	li	s9,0
    80000032:	4d01                	li	s10,0
    80000034:	4d81                	li	s11,0
    80000036:	4e01                	li	t3,0
    80000038:	4e81                	li	t4,0
    8000003a:	4f01                	li	t5,0
    8000003c:	4f81                	li	t6,0
    8000003e:	62f9                	lui	t0,0x1e
    80000040:	3002a073          	csrs	mstatus,t0
    80000044:	4285                	li	t0,1
    80000046:	02fe                	sll	t0,t0,0x1f
    80000048:	0002d863          	bgez	t0,80000058 <_start+0x58>
    8000004c:	4505                	li	a0,1
    8000004e:	e0000297          	auipc	t0,0xe0000
    80000052:	faa2a923          	sw	a0,-78(t0) # 60000000 <tohost>
    80000056:	bfdd                	j	8000004c <_start+0x4c>
    80000058:	00000297          	auipc	t0,0x0
    8000005c:	09028293          	add	t0,t0,144 # 800000e8 <_start+0xe8>
    80000060:	30529073          	csrw	mtvec,t0
    80000064:	00301073          	fscsr	zero
    80000068:	f0000053          	fmv.w.x	ft0,zero
    8000006c:	f00000d3          	fmv.w.x	ft1,zero
    80000070:	f0000153          	fmv.w.x	ft2,zero
    80000074:	f00001d3          	fmv.w.x	ft3,zero
    80000078:	f0000253          	fmv.w.x	ft4,zero
    8000007c:	f00002d3          	fmv.w.x	ft5,zero
    80000080:	f0000353          	fmv.w.x	ft6,zero
    80000084:	f00003d3          	fmv.w.x	ft7,zero
    80000088:	f0000453          	fmv.w.x	fs0,zero
    8000008c:	f00004d3          	fmv.w.x	fs1,zero
    80000090:	f0000553          	fmv.w.x	fa0,zero
    80000094:	f00005d3          	fmv.w.x	fa1,zero
    80000098:	f0000653          	fmv.w.x	fa2,zero
    8000009c:	f00006d3          	fmv.w.x	fa3,zero
    800000a0:	f0000753          	fmv.w.x	fa4,zero
    800000a4:	f00007d3          	fmv.w.x	fa5,zero
    800000a8:	f0000853          	fmv.w.x	fa6,zero
    800000ac:	f00008d3          	fmv.w.x	fa7,zero
    800000b0:	f0000953          	fmv.w.x	fs2,zero
    800000b4:	f00009d3          	fmv.w.x	fs3,zero
    800000b8:	f0000a53          	fmv.w.x	fs4,zero
    800000bc:	f0000ad3          	fmv.w.x	fs5,zero
    800000c0:	f0000b53          	fmv.w.x	fs6,zero
    800000c4:	f0000bd3          	fmv.w.x	fs7,zero
    800000c8:	f0000c53          	fmv.w.x	fs8,zero
    800000cc:	f0000cd3          	fmv.w.x	fs9,zero
    800000d0:	f0000d53          	fmv.w.x	fs10,zero
    800000d4:	f0000dd3          	fmv.w.x	fs11,zero
    800000d8:	f0000e53          	fmv.w.x	ft8,zero
    800000dc:	f0000ed3          	fmv.w.x	ft9,zero
    800000e0:	f0000f53          	fmv.w.x	ft10,zero
    800000e4:	f0000fd3          	fmv.w.x	ft11,zero
    800000e8:	00000297          	auipc	t0,0x0
    800000ec:	03c28293          	add	t0,t0,60 # 80000124 <trap_entry>
    800000f0:	30529073          	csrw	mtvec,t0
    800000f4:	00005197          	auipc	gp,0x5
    800000f8:	f5c18193          	add	gp,gp,-164 # 80005050 <__global_pointer$>
    800000fc:	00006217          	auipc	tp,0x6
    80000100:	98320213          	add	tp,tp,-1661 # 80005a7f <_end+0x3f>
    80000104:	fc027213          	and	tp,tp,-64
    80000108:	f1402573          	csrr	a0,mhartid
    8000010c:	4585                	li	a1,1
    8000010e:	00b57063          	bgeu	a0,a1,8000010e <_start+0x10e>
    80000112:	00150113          	add	sp,a0,1
    80000116:	013a                	sll	sp,sp,0xe
    80000118:	9112                	add	sp,sp,tp
    8000011a:	00e51613          	sll	a2,a0,0xe
    8000011e:	9232                	add	tp,tp,a2
    80000120:	57a0106f          	j	8000169a <_init>

0000000080000124 <trap_entry>:
    80000124:	716d                	add	sp,sp,-272
    80000126:	e406                	sd	ra,8(sp)
    80000128:	e80a                	sd	sp,16(sp)
    8000012a:	ec0e                	sd	gp,24(sp)
    8000012c:	f012                	sd	tp,32(sp)
    8000012e:	f416                	sd	t0,40(sp)
    80000130:	f81a                	sd	t1,48(sp)
    80000132:	fc1e                	sd	t2,56(sp)
    80000134:	e0a2                	sd	s0,64(sp)
    80000136:	e4a6                	sd	s1,72(sp)
    80000138:	e8aa                	sd	a0,80(sp)
    8000013a:	ecae                	sd	a1,88(sp)
    8000013c:	f0b2                	sd	a2,96(sp)
    8000013e:	f4b6                	sd	a3,104(sp)
    80000140:	f8ba                	sd	a4,112(sp)
    80000142:	fcbe                	sd	a5,120(sp)
    80000144:	e142                	sd	a6,128(sp)
    80000146:	e546                	sd	a7,136(sp)
    80000148:	e94a                	sd	s2,144(sp)
    8000014a:	ed4e                	sd	s3,152(sp)
    8000014c:	f152                	sd	s4,160(sp)
    8000014e:	f556                	sd	s5,168(sp)
    80000150:	f95a                	sd	s6,176(sp)
    80000152:	fd5e                	sd	s7,184(sp)
    80000154:	e1e2                	sd	s8,192(sp)
    80000156:	e5e6                	sd	s9,200(sp)
    80000158:	e9ea                	sd	s10,208(sp)
    8000015a:	edee                	sd	s11,216(sp)
    8000015c:	f1f2                	sd	t3,224(sp)
    8000015e:	f5f6                	sd	t4,232(sp)
    80000160:	f9fa                	sd	t5,240(sp)
    80000162:	fdfe                	sd	t6,248(sp)
    80000164:	34202573          	csrr	a0,mcause
    80000168:	341025f3          	csrr	a1,mepc
    8000016c:	860a                	mv	a2,sp
    8000016e:	374010ef          	jal	800014e2 <handle_trap>
    80000172:	34151073          	csrw	mepc,a0
    80000176:	6289                	lui	t0,0x2
    80000178:	8002829b          	addw	t0,t0,-2048 # 1800 <buflen.1+0x1780>
    8000017c:	3002a073          	csrs	mstatus,t0
    80000180:	60a2                	ld	ra,8(sp)
    80000182:	6142                	ld	sp,16(sp)
    80000184:	61e2                	ld	gp,24(sp)
    80000186:	7202                	ld	tp,32(sp)
    80000188:	72a2                	ld	t0,40(sp)
    8000018a:	7342                	ld	t1,48(sp)
    8000018c:	73e2                	ld	t2,56(sp)
    8000018e:	6406                	ld	s0,64(sp)
    80000190:	64a6                	ld	s1,72(sp)
    80000192:	6546                	ld	a0,80(sp)
    80000194:	65e6                	ld	a1,88(sp)
    80000196:	7606                	ld	a2,96(sp)
    80000198:	76a6                	ld	a3,104(sp)
    8000019a:	7746                	ld	a4,112(sp)
    8000019c:	77e6                	ld	a5,120(sp)
    8000019e:	680a                	ld	a6,128(sp)
    800001a0:	68aa                	ld	a7,136(sp)
    800001a2:	694a                	ld	s2,144(sp)
    800001a4:	69ea                	ld	s3,152(sp)
    800001a6:	7a0a                	ld	s4,160(sp)
    800001a8:	7aaa                	ld	s5,168(sp)
    800001aa:	7b4a                	ld	s6,176(sp)
    800001ac:	7bea                	ld	s7,184(sp)
    800001ae:	6c0e                	ld	s8,192(sp)
    800001b0:	6cae                	ld	s9,200(sp)
    800001b2:	6d4e                	ld	s10,208(sp)
    800001b4:	6dee                	ld	s11,216(sp)
    800001b6:	7e0e                	ld	t3,224(sp)
    800001b8:	7eae                	ld	t4,232(sp)
    800001ba:	7f4e                	ld	t5,240(sp)
    800001bc:	7fee                	ld	t6,248(sp)
    800001be:	6151                	add	sp,sp,272
    800001c0:	30200073          	mret
    800001c4:	0000                	unimp

Disassembly of section .text:

0000000080001000 <barrier>:
    80001000:	0ff0000f          	fence
    80001004:	00022703          	lw	a4,0(tp) # 0 <threadsense.3>
    80001008:	9b018693          	add	a3,gp,-1616 # 80004a00 <count.1>
    8000100c:	4605                	li	a2,1
    8000100e:	00173713          	seqz	a4,a4
    80001012:	00e22023          	sw	a4,0(tp) # 0 <threadsense.3>
    80001016:	0f50000f          	fence	iorw,ow
    8000101a:	04c6a72f          	amoadd.w.aq	a4,a2,(a3)
    8000101e:	357d                	addw	a0,a0,-1
    80001020:	2701                	sext.w	a4,a4
    80001022:	00e50c63          	beq	a0,a4,8000103a <barrier+0x3a>
    80001026:	00022683          	lw	a3,0(tp) # 0 <threadsense.3>
    8000102a:	9ac18713          	add	a4,gp,-1620 # 800049fc <sense.0>
    8000102e:	431c                	lw	a5,0(a4)
    80001030:	fed79fe3          	bne	a5,a3,8000102e <barrier+0x2e>
    80001034:	0ff0000f          	fence
    80001038:	8082                	ret
    8000103a:	00022783          	lw	a5,0(tp) # 0 <threadsense.3>
    8000103e:	9a01a823          	sw	zero,-1616(gp) # 80004a00 <count.1>
    80001042:	9af1a623          	sw	a5,-1620(gp) # 800049fc <sense.0>
    80001046:	b7fd                	j	80001034 <barrier+0x34>

0000000080001048 <matmul>:
    80001048:	02b652b3          	divu	t0,a2,a1
    8000104c:	1101                	add	sp,sp,-32
    8000104e:	e826                	sd	s1,16(sp)
    80001050:	ec22                	sd	s0,24(sp)
    80001052:	e44a                	sd	s2,8(sp)
    80001054:	e04e                	sd	s3,0(sp)
    80001056:	02a284b3          	mul	s1,t0,a0
    8000105a:	c22d                	beqz	a2,800010bc <matmul+0x74>
    8000105c:	00261813          	sll	a6,a2,0x2
    80001060:	00148913          	add	s2,s1,1
    80001064:	8fb2                	mv	t6,a2
    80001066:	83b6                	mv	t2,a3
    80001068:	92a6                	add	t0,t0,s1
    8000106a:	8f3e                	mv	t5,a5
    8000106c:	8eba                	mv	t4,a4
    8000106e:	4401                	li	s0,0
    80001070:	03090933          	mul	s2,s2,a6
    80001074:	029609b3          	mul	s3,a2,s1
    80001078:	9936                	add	s2,s2,a3
    8000107a:	854a                	mv	a0,s2
    8000107c:	8e4e                	mv	t3,s3
    8000107e:	8326                	mv	t1,s1
    80001080:	0254f963          	bgeu	s1,t0,800010b2 <matmul+0x6a>
    80001084:	002e1893          	sll	a7,t3,0x2
    80001088:	01138733          	add	a4,t2,a7
    8000108c:	86f6                	mv	a3,t4
    8000108e:	4601                	li	a2,0
    80001090:	430c                	lw	a1,0(a4)
    80001092:	429c                	lw	a5,0(a3)
    80001094:	0711                	add	a4,a4,4
    80001096:	96c2                	add	a3,a3,a6
    80001098:	02b787bb          	mulw	a5,a5,a1
    8000109c:	9e3d                	addw	a2,a2,a5
    8000109e:	fee519e3          	bne	a0,a4,80001090 <matmul+0x48>
    800010a2:	98fa                	add	a7,a7,t5
    800010a4:	00c8a023          	sw	a2,0(a7)
    800010a8:	0305                	add	t1,t1,1
    800010aa:	9e7e                	add	t3,t3,t6
    800010ac:	9542                	add	a0,a0,a6
    800010ae:	fc531be3          	bne	t1,t0,80001084 <matmul+0x3c>
    800010b2:	0405                	add	s0,s0,1
    800010b4:	0f11                	add	t5,t5,4
    800010b6:	0e91                	add	t4,t4,4
    800010b8:	fc8f91e3          	bne	t6,s0,8000107a <matmul+0x32>
    800010bc:	6462                	ld	s0,24(sp)
    800010be:	64c2                	ld	s1,16(sp)
    800010c0:	6922                	ld	s2,8(sp)
    800010c2:	6982                	ld	s3,0(sp)
    800010c4:	6105                	add	sp,sp,32
    800010c6:	8082                	ret

00000000800010c8 <thread_entry>:
    800010c8:	1141                	add	sp,sp,-16
    800010ca:	00004797          	auipc	a5,0x4
    800010ce:	93e78793          	add	a5,a5,-1730 # 80004a08 <results_data.2>
    800010d2:	00001717          	auipc	a4,0x1
    800010d6:	77e70713          	add	a4,a4,1918 # 80002850 <input2_data>
    800010da:	00002697          	auipc	a3,0x2
    800010de:	77668693          	add	a3,a3,1910 # 80003850 <input1_data>
    800010e2:	02000613          	li	a2,32
    800010e6:	e406                	sd	ra,8(sp)
    800010e8:	e022                	sd	s0,0(sp)
    800010ea:	842e                	mv	s0,a1
    800010ec:	f5dff0ef          	jal	80001048 <matmul>
    800010f0:	8522                	mv	a0,s0
    800010f2:	f0fff0ef          	jal	80001000 <barrier>
    800010f6:	00004717          	auipc	a4,0x4
    800010fa:	91270713          	add	a4,a4,-1774 # 80004a08 <results_data.2>
    800010fe:	00000797          	auipc	a5,0x0
    80001102:	75278793          	add	a5,a5,1874 # 80001850 <verify_data>
    80001106:	4501                	li	a0,0
    80001108:	40000893          	li	a7,1024
    8000110c:	a801                	j	8000111c <thread_entry+0x54>
    8000110e:	2509                	addw	a0,a0,2
    80001110:	01069f63          	bne	a3,a6,8000112e <thread_entry+0x66>
    80001114:	0721                	add	a4,a4,8
    80001116:	07a1                	add	a5,a5,8
    80001118:	01150d63          	beq	a0,a7,80001132 <thread_entry+0x6a>
    8000111c:	4310                	lw	a2,0(a4)
    8000111e:	438c                	lw	a1,0(a5)
    80001120:	4354                	lw	a3,4(a4)
    80001122:	0047a803          	lw	a6,4(a5)
    80001126:	2681                	sext.w	a3,a3
    80001128:	fec583e3          	beq	a1,a2,8000110e <thread_entry+0x46>
    8000112c:	2505                	addw	a0,a0,1
    8000112e:	3c4000ef          	jal	800014f2 <exit>
    80001132:	4501                	li	a0,0
    80001134:	bfed                	j	8000112e <thread_entry+0x66>

0000000080001136 <vprintfmt>:
    80001136:	7149                	add	sp,sp,-368
    80001138:	f2a2                	sd	s0,352(sp)
    8000113a:	eea6                	sd	s1,344(sp)
    8000113c:	eaca                	sd	s2,336(sp)
    8000113e:	e2d2                	sd	s4,320(sp)
    80001140:	fe56                	sd	s5,312(sp)
    80001142:	fa5a                	sd	s6,304(sp)
    80001144:	f65e                	sd	s7,296(sp)
    80001146:	f686                	sd	ra,360(sp)
    80001148:	e6ce                	sd	s3,328(sp)
    8000114a:	f262                	sd	s8,288(sp)
    8000114c:	ee66                	sd	s9,280(sp)
    8000114e:	ea6a                	sd	s10,272(sp)
    80001150:	e66e                	sd	s11,264(sp)
    80001152:	892a                	mv	s2,a0
    80001154:	84ae                	mv	s1,a1
    80001156:	8432                	mv	s0,a2
    80001158:	8ab6                	mv	s5,a3
    8000115a:	02500a13          	li	s4,37
    8000115e:	05500b93          	li	s7,85
    80001162:	85418b13          	add	s6,gp,-1964 # 800048a4 <input1_data+0x1054>
    80001166:	a029                	j	80001170 <vprintfmt+0x3a>
    80001168:	cd1d                	beqz	a0,800011a6 <vprintfmt+0x70>
    8000116a:	85a6                	mv	a1,s1
    8000116c:	0405                	add	s0,s0,1
    8000116e:	9902                	jalr	s2
    80001170:	00044503          	lbu	a0,0(s0)
    80001174:	ff451ae3          	bne	a0,s4,80001168 <vprintfmt+0x32>
    80001178:	00144683          	lbu	a3,1(s0)
    8000117c:	00140993          	add	s3,s0,1
    80001180:	874e                	mv	a4,s3
    80001182:	02000c93          	li	s9,32
    80001186:	5c7d                	li	s8,-1
    80001188:	5dfd                	li	s11,-1
    8000118a:	4601                	li	a2,0
    8000118c:	fdd6879b          	addw	a5,a3,-35
    80001190:	0ff7f793          	zext.b	a5,a5
    80001194:	00170413          	add	s0,a4,1
    80001198:	04fbe263          	bltu	s7,a5,800011dc <vprintfmt+0xa6>
    8000119c:	078a                	sll	a5,a5,0x2
    8000119e:	97da                	add	a5,a5,s6
    800011a0:	439c                	lw	a5,0(a5)
    800011a2:	97da                	add	a5,a5,s6
    800011a4:	8782                	jr	a5
    800011a6:	70b6                	ld	ra,360(sp)
    800011a8:	7416                	ld	s0,352(sp)
    800011aa:	64f6                	ld	s1,344(sp)
    800011ac:	6956                	ld	s2,336(sp)
    800011ae:	69b6                	ld	s3,328(sp)
    800011b0:	6a16                	ld	s4,320(sp)
    800011b2:	7af2                	ld	s5,312(sp)
    800011b4:	7b52                	ld	s6,304(sp)
    800011b6:	7bb2                	ld	s7,296(sp)
    800011b8:	7c12                	ld	s8,288(sp)
    800011ba:	6cf2                	ld	s9,280(sp)
    800011bc:	6d52                	ld	s10,272(sp)
    800011be:	6db2                	ld	s11,264(sp)
    800011c0:	6175                	add	sp,sp,368
    800011c2:	8082                	ret
    800011c4:	8cb6                	mv	s9,a3
    800011c6:	00174683          	lbu	a3,1(a4)
    800011ca:	8722                	mv	a4,s0
    800011cc:	00170413          	add	s0,a4,1
    800011d0:	fdd6879b          	addw	a5,a3,-35
    800011d4:	0ff7f793          	zext.b	a5,a5
    800011d8:	fcfbf2e3          	bgeu	s7,a5,8000119c <vprintfmt+0x66>
    800011dc:	85a6                	mv	a1,s1
    800011de:	02500513          	li	a0,37
    800011e2:	9902                	jalr	s2
    800011e4:	844e                	mv	s0,s3
    800011e6:	b769                	j	80001170 <vprintfmt+0x3a>
    800011e8:	fd068c1b          	addw	s8,a3,-48
    800011ec:	00174683          	lbu	a3,1(a4)
    800011f0:	47a5                	li	a5,9
    800011f2:	fd06871b          	addw	a4,a3,-48
    800011f6:	0006859b          	sext.w	a1,a3
    800011fa:	20e7e863          	bltu	a5,a4,8000140a <vprintfmt+0x2d4>
    800011fe:	8722                	mv	a4,s0
    80001200:	4825                	li	a6,9
    80001202:	00174683          	lbu	a3,1(a4)
    80001206:	002c179b          	sllw	a5,s8,0x2
    8000120a:	018787bb          	addw	a5,a5,s8
    8000120e:	0017979b          	sllw	a5,a5,0x1
    80001212:	9fad                	addw	a5,a5,a1
    80001214:	fd06851b          	addw	a0,a3,-48
    80001218:	0705                	add	a4,a4,1
    8000121a:	fd078c1b          	addw	s8,a5,-48
    8000121e:	0006859b          	sext.w	a1,a3
    80001222:	fea870e3          	bgeu	a6,a0,80001202 <vprintfmt+0xcc>
    80001226:	f60dd3e3          	bgez	s11,8000118c <vprintfmt+0x56>
    8000122a:	8de2                	mv	s11,s8
    8000122c:	5c7d                	li	s8,-1
    8000122e:	bfb9                	j	8000118c <vprintfmt+0x56>
    80001230:	00174683          	lbu	a3,1(a4)
    80001234:	8722                	mv	a4,s0
    80001236:	bf99                	j	8000118c <vprintfmt+0x56>
    80001238:	85a6                	mv	a1,s1
    8000123a:	02500513          	li	a0,37
    8000123e:	9902                	jalr	s2
    80001240:	bf05                	j	80001170 <vprintfmt+0x3a>
    80001242:	000aac03          	lw	s8,0(s5)
    80001246:	00174683          	lbu	a3,1(a4)
    8000124a:	0aa1                	add	s5,s5,8
    8000124c:	8722                	mv	a4,s0
    8000124e:	bfe1                	j	80001226 <vprintfmt+0xf0>
    80001250:	03000513          	li	a0,48
    80001254:	85a6                	mv	a1,s1
    80001256:	9902                	jalr	s2
    80001258:	85a6                	mv	a1,s1
    8000125a:	07800513          	li	a0,120
    8000125e:	9902                	jalr	s2
    80001260:	46c1                	li	a3,16
    80001262:	008a8713          	add	a4,s5,8
    80001266:	000ab783          	ld	a5,0(s5)
    8000126a:	8aba                	mv	s5,a4
    8000126c:	02d7f5b3          	remu	a1,a5,a3
    80001270:	000c899b          	sext.w	s3,s9
    80001274:	0050                	add	a2,sp,4
    80001276:	4705                	li	a4,1
    80001278:	c02e                	sw	a1,0(sp)
    8000127a:	16d7e663          	bltu	a5,a3,800013e6 <vprintfmt+0x2b0>
    8000127e:	02d7d7b3          	divu	a5,a5,a3
    80001282:	0611                	add	a2,a2,4
    80001284:	8c3a                	mv	s8,a4
    80001286:	2705                	addw	a4,a4,1
    80001288:	02d7f5b3          	remu	a1,a5,a3
    8000128c:	feb62e23          	sw	a1,-4(a2)
    80001290:	fed7f7e3          	bgeu	a5,a3,8000127e <vprintfmt+0x148>
    80001294:	fffd8c9b          	addw	s9,s11,-1
    80001298:	fff70d1b          	addw	s10,a4,-1
    8000129c:	01b75863          	bge	a4,s11,800012ac <vprintfmt+0x176>
    800012a0:	3cfd                	addw	s9,s9,-1
    800012a2:	85a6                	mv	a1,s1
    800012a4:	854e                	mv	a0,s3
    800012a6:	9902                	jalr	s2
    800012a8:	ffac9ce3          	bne	s9,s10,800012a0 <vprintfmt+0x16a>
    800012ac:	0c0a                	sll	s8,s8,0x2
    800012ae:	018109b3          	add	s3,sp,s8
    800012b2:	ffc10c93          	add	s9,sp,-4
    800012b6:	4c25                	li	s8,9
    800012b8:	0009a783          	lw	a5,0(s3)
    800012bc:	05700513          	li	a0,87
    800012c0:	00fc6463          	bltu	s8,a5,800012c8 <vprintfmt+0x192>
    800012c4:	03000513          	li	a0,48
    800012c8:	19f1                	add	s3,s3,-4
    800012ca:	85a6                	mv	a1,s1
    800012cc:	9d3d                	addw	a0,a0,a5
    800012ce:	9902                	jalr	s2
    800012d0:	ff3c94e3          	bne	s9,s3,800012b8 <vprintfmt+0x182>
    800012d4:	bd71                	j	80001170 <vprintfmt+0x3a>
    800012d6:	4785                	li	a5,1
    800012d8:	008a8c13          	add	s8,s5,8
    800012dc:	00c7c463          	blt	a5,a2,800012e4 <vprintfmt+0x1ae>
    800012e0:	10060563          	beqz	a2,800013ea <vprintfmt+0x2b4>
    800012e4:	000ab983          	ld	s3,0(s5)
    800012e8:	1009c863          	bltz	s3,800013f8 <vprintfmt+0x2c2>
    800012ec:	87ce                	mv	a5,s3
    800012ee:	8ae2                	mv	s5,s8
    800012f0:	46a9                	li	a3,10
    800012f2:	bfad                	j	8000126c <vprintfmt+0x136>
    800012f4:	00174683          	lbu	a3,1(a4)
    800012f8:	2605                	addw	a2,a2,1
    800012fa:	8722                	mv	a4,s0
    800012fc:	bd41                	j	8000118c <vprintfmt+0x56>
    800012fe:	46c1                	li	a3,16
    80001300:	4785                	li	a5,1
    80001302:	008a8713          	add	a4,s5,8
    80001306:	f6c7c0e3          	blt	a5,a2,80001266 <vprintfmt+0x130>
    8000130a:	fe31                	bnez	a2,80001266 <vprintfmt+0x130>
    8000130c:	000ae783          	lwu	a5,0(s5)
    80001310:	8aba                	mv	s5,a4
    80001312:	bfa9                	j	8000126c <vprintfmt+0x136>
    80001314:	000abd03          	ld	s10,0(s5)
    80001318:	0aa1                	add	s5,s5,8
    8000131a:	040d0263          	beqz	s10,8000135e <vprintfmt+0x228>
    8000131e:	09b05d63          	blez	s11,800013b8 <vprintfmt+0x282>
    80001322:	02d00793          	li	a5,45
    80001326:	04fc9e63          	bne	s9,a5,80001382 <vprintfmt+0x24c>
    8000132a:	000d4503          	lbu	a0,0(s10)
    8000132e:	c105                	beqz	a0,8000134e <vprintfmt+0x218>
    80001330:	59fd                	li	s3,-1
    80001332:	000c4563          	bltz	s8,8000133c <vprintfmt+0x206>
    80001336:	3c7d                	addw	s8,s8,-1
    80001338:	013c0963          	beq	s8,s3,8000134a <vprintfmt+0x214>
    8000133c:	85a6                	mv	a1,s1
    8000133e:	0d05                	add	s10,s10,1
    80001340:	9902                	jalr	s2
    80001342:	000d4503          	lbu	a0,0(s10)
    80001346:	3dfd                	addw	s11,s11,-1
    80001348:	f56d                	bnez	a0,80001332 <vprintfmt+0x1fc>
    8000134a:	e3b053e3          	blez	s11,80001170 <vprintfmt+0x3a>
    8000134e:	3dfd                	addw	s11,s11,-1
    80001350:	85a6                	mv	a1,s1
    80001352:	02000513          	li	a0,32
    80001356:	9902                	jalr	s2
    80001358:	fe0d9be3          	bnez	s11,8000134e <vprintfmt+0x218>
    8000135c:	bd11                	j	80001170 <vprintfmt+0x3a>
    8000135e:	00003d17          	auipc	s10,0x3
    80001362:	4fad0d13          	add	s10,s10,1274 # 80004858 <input1_data+0x1008>
    80001366:	02800513          	li	a0,40
    8000136a:	fdb053e3          	blez	s11,80001330 <vprintfmt+0x1fa>
    8000136e:	02d00793          	li	a5,45
    80001372:	00003d17          	auipc	s10,0x3
    80001376:	4e6d0d13          	add	s10,s10,1254 # 80004858 <input1_data+0x1008>
    8000137a:	02800513          	li	a0,40
    8000137e:	fafc89e3          	beq	s9,a5,80001330 <vprintfmt+0x1fa>
    80001382:	000d861b          	sext.w	a2,s11
    80001386:	87ea                	mv	a5,s10
    80001388:	018d06b3          	add	a3,s10,s8
    8000138c:	000c1663          	bnez	s8,80001398 <vprintfmt+0x262>
    80001390:	a829                	j	800013aa <vprintfmt+0x274>
    80001392:	0785                	add	a5,a5,1
    80001394:	00d78563          	beq	a5,a3,8000139e <vprintfmt+0x268>
    80001398:	0007c703          	lbu	a4,0(a5)
    8000139c:	fb7d                	bnez	a4,80001392 <vprintfmt+0x25c>
    8000139e:	41a787b3          	sub	a5,a5,s10
    800013a2:	40f60dbb          	subw	s11,a2,a5
    800013a6:	01b05963          	blez	s11,800013b8 <vprintfmt+0x282>
    800013aa:	2c81                	sext.w	s9,s9
    800013ac:	3dfd                	addw	s11,s11,-1
    800013ae:	85a6                	mv	a1,s1
    800013b0:	8566                	mv	a0,s9
    800013b2:	9902                	jalr	s2
    800013b4:	fe0d9ce3          	bnez	s11,800013ac <vprintfmt+0x276>
    800013b8:	000d4503          	lbu	a0,0(s10)
    800013bc:	da050ae3          	beqz	a0,80001170 <vprintfmt+0x3a>
    800013c0:	59fd                	li	s3,-1
    800013c2:	bf85                	j	80001332 <vprintfmt+0x1fc>
    800013c4:	fffdc793          	not	a5,s11
    800013c8:	97fd                	sra	a5,a5,0x3f
    800013ca:	00fdf7b3          	and	a5,s11,a5
    800013ce:	00174683          	lbu	a3,1(a4)
    800013d2:	00078d9b          	sext.w	s11,a5
    800013d6:	8722                	mv	a4,s0
    800013d8:	bb55                	j	8000118c <vprintfmt+0x56>
    800013da:	000aa503          	lw	a0,0(s5)
    800013de:	85a6                	mv	a1,s1
    800013e0:	0aa1                	add	s5,s5,8
    800013e2:	9902                	jalr	s2
    800013e4:	b371                	j	80001170 <vprintfmt+0x3a>
    800013e6:	4c01                	li	s8,0
    800013e8:	b575                	j	80001294 <vprintfmt+0x15e>
    800013ea:	000aa983          	lw	s3,0(s5)
    800013ee:	bded                	j	800012e8 <vprintfmt+0x1b2>
    800013f0:	46a9                	li	a3,10
    800013f2:	b739                	j	80001300 <vprintfmt+0x1ca>
    800013f4:	46a1                	li	a3,8
    800013f6:	b729                	j	80001300 <vprintfmt+0x1ca>
    800013f8:	85a6                	mv	a1,s1
    800013fa:	02d00513          	li	a0,45
    800013fe:	9902                	jalr	s2
    80001400:	8ae2                	mv	s5,s8
    80001402:	413007b3          	neg	a5,s3
    80001406:	46a9                	li	a3,10
    80001408:	b595                	j	8000126c <vprintfmt+0x136>
    8000140a:	8722                	mv	a4,s0
    8000140c:	bd29                	j	80001226 <vprintfmt+0xf0>

000000008000140e <sprintf_putch.0>:
    8000140e:	619c                	ld	a5,0(a1)
    80001410:	00a78023          	sb	a0,0(a5)
    80001414:	619c                	ld	a5,0(a1)
    80001416:	0785                	add	a5,a5,1
    80001418:	e19c                	sd	a5,0(a1)
    8000141a:	8082                	ret

000000008000141c <putchar>:
    8000141c:	08022803          	lw	a6,128(tp) # 80 <buflen.1>
    80001420:	04020793          	add	a5,tp,64 # 40 <buf.2>
    80001424:	97c2                	add	a5,a5,a6
    80001426:	7159                	add	sp,sp,-112
    80001428:	0018069b          	addw	a3,a6,1
    8000142c:	08d22023          	sw	a3,128(tp) # 80 <buflen.1>
    80001430:	00a78023          	sb	a0,0(a5)
    80001434:	03f10713          	add	a4,sp,63
    80001438:	47a9                	li	a5,10
    8000143a:	fc077713          	and	a4,a4,-64
    8000143e:	00f50963          	beq	a0,a5,80001450 <putchar+0x34>
    80001442:	04000793          	li	a5,64
    80001446:	00f68563          	beq	a3,a5,80001450 <putchar+0x34>
    8000144a:	4501                	li	a0,0
    8000144c:	6165                	add	sp,sp,112
    8000144e:	8082                	ret
    80001450:	04000793          	li	a5,64
    80001454:	e31c                	sd	a5,0(a4)
    80001456:	4785                	li	a5,1
    80001458:	e71c                	sd	a5,8(a4)
    8000145a:	04020613          	add	a2,tp,64 # 40 <buf.2>
    8000145e:	eb10                	sd	a2,16(a4)
    80001460:	ef14                	sd	a3,24(a4)
    80001462:	0ff0000f          	fence
    80001466:	dffff697          	auipc	a3,0xdffff
    8000146a:	bda68693          	add	a3,a3,-1062 # 60000040 <fromhost>
    8000146e:	dffff797          	auipc	a5,0xdffff
    80001472:	b8e7b923          	sd	a4,-1134(a5) # 60000000 <tohost>
    80001476:	629c                	ld	a5,0(a3)
    80001478:	dffd                	beqz	a5,80001476 <putchar+0x5a>
    8000147a:	dffff797          	auipc	a5,0xdffff
    8000147e:	bc07b323          	sd	zero,-1082(a5) # 60000040 <fromhost>
    80001482:	0ff0000f          	fence
    80001486:	08022023          	sw	zero,128(tp) # 80 <buflen.1>
    8000148a:	631c                	ld	a5,0(a4)
    8000148c:	4501                	li	a0,0
    8000148e:	6165                	add	sp,sp,112
    80001490:	8082                	ret

0000000080001492 <setStats>:
    80001492:	b0002773          	csrr	a4,mcycle
    80001496:	00004797          	auipc	a5,0x4
    8000149a:	57278793          	add	a5,a5,1394 # 80005a08 <counters>
    8000149e:	c511                	beqz	a0,800014aa <setStats+0x18>
    800014a0:	e398                	sd	a4,0(a5)
    800014a2:	b0202773          	csrr	a4,minstret
    800014a6:	e798                	sd	a4,8(a5)
    800014a8:	8082                	ret
    800014aa:	6394                	ld	a3,0(a5)
    800014ac:	00003617          	auipc	a2,0x3
    800014b0:	3bc60613          	add	a2,a2,956 # 80004868 <input1_data+0x1018>
    800014b4:	eb90                	sd	a2,16(a5)
    800014b6:	8f15                	sub	a4,a4,a3
    800014b8:	e398                	sd	a4,0(a5)
    800014ba:	b0202773          	csrr	a4,minstret
    800014be:	6794                	ld	a3,8(a5)
    800014c0:	00003617          	auipc	a2,0x3
    800014c4:	3b060613          	add	a2,a2,944 # 80004870 <input1_data+0x1020>
    800014c8:	ef90                	sd	a2,24(a5)
    800014ca:	8f15                	sub	a4,a4,a3
    800014cc:	e798                	sd	a4,8(a5)
    800014ce:	8082                	ret

00000000800014d0 <tohost_exit>:
    800014d0:	00151793          	sll	a5,a0,0x1
    800014d4:	0017e793          	or	a5,a5,1
    800014d8:	dffff717          	auipc	a4,0xdffff
    800014dc:	b2f73423          	sd	a5,-1240(a4) # 60000000 <tohost>
    800014e0:	a001                	j	800014e0 <tohost_exit+0x10>

00000000800014e2 <handle_trap>:
    800014e2:	6785                	lui	a5,0x1
    800014e4:	a7378793          	add	a5,a5,-1421 # a73 <buflen.1+0x9f3>
    800014e8:	dffff717          	auipc	a4,0xdffff
    800014ec:	b0f73c23          	sd	a5,-1256(a4) # 60000000 <tohost>
    800014f0:	a001                	j	800014f0 <handle_trap+0xe>

00000000800014f2 <exit>:
    800014f2:	1141                	add	sp,sp,-16
    800014f4:	e406                	sd	ra,8(sp)
    800014f6:	fdbff0ef          	jal	800014d0 <tohost_exit>

00000000800014fa <abort>:
    800014fa:	10d00793          	li	a5,269
    800014fe:	dffff717          	auipc	a4,0xdffff
    80001502:	b0f73123          	sd	a5,-1278(a4) # 60000000 <tohost>
    80001506:	a001                	j	80001506 <abort+0xc>

0000000080001508 <printstr>:
    80001508:	00054783          	lbu	a5,0(a0)
    8000150c:	7159                	add	sp,sp,-112
    8000150e:	03f10693          	add	a3,sp,63
    80001512:	fc06f693          	and	a3,a3,-64
    80001516:	c3b9                	beqz	a5,8000155c <printstr+0x54>
    80001518:	87aa                	mv	a5,a0
    8000151a:	0017c703          	lbu	a4,1(a5)
    8000151e:	0785                	add	a5,a5,1
    80001520:	ff6d                	bnez	a4,8000151a <printstr+0x12>
    80001522:	8f89                	sub	a5,a5,a0
    80001524:	04000713          	li	a4,64
    80001528:	e298                	sd	a4,0(a3)
    8000152a:	4705                	li	a4,1
    8000152c:	e698                	sd	a4,8(a3)
    8000152e:	ea88                	sd	a0,16(a3)
    80001530:	ee9c                	sd	a5,24(a3)
    80001532:	0ff0000f          	fence
    80001536:	dffff717          	auipc	a4,0xdffff
    8000153a:	b0a70713          	add	a4,a4,-1270 # 60000040 <fromhost>
    8000153e:	dffff797          	auipc	a5,0xdffff
    80001542:	acd7b123          	sd	a3,-1342(a5) # 60000000 <tohost>
    80001546:	631c                	ld	a5,0(a4)
    80001548:	dffd                	beqz	a5,80001546 <printstr+0x3e>
    8000154a:	dffff797          	auipc	a5,0xdffff
    8000154e:	ae07bb23          	sd	zero,-1290(a5) # 60000040 <fromhost>
    80001552:	0ff0000f          	fence
    80001556:	629c                	ld	a5,0(a3)
    80001558:	6165                	add	sp,sp,112
    8000155a:	8082                	ret
    8000155c:	4781                	li	a5,0
    8000155e:	b7d9                	j	80001524 <printstr+0x1c>
    80001560:	e101                	bnez	a0,80001560 <printstr+0x58>
    80001562:	8082                	ret

0000000080001564 <printhex>:
    80001564:	7179                	add	sp,sp,-48
    80001566:	87aa                	mv	a5,a0
    80001568:	f406                	sd	ra,40(sp)
    8000156a:	0028                	add	a0,sp,8
    8000156c:	01710713          	add	a4,sp,23
    80001570:	4825                	li	a6,9
    80001572:	a011                	j	80001576 <printhex+0x12>
    80001574:	8736                	mv	a4,a3
    80001576:	00f7f613          	and	a2,a5,15
    8000157a:	86b2                	mv	a3,a2
    8000157c:	05700593          	li	a1,87
    80001580:	00c86463          	bltu	a6,a2,80001588 <printhex+0x24>
    80001584:	03000593          	li	a1,48
    80001588:	9ead                	addw	a3,a3,a1
    8000158a:	00d70023          	sb	a3,0(a4)
    8000158e:	8391                	srl	a5,a5,0x4
    80001590:	fff70693          	add	a3,a4,-1
    80001594:	fee510e3          	bne	a0,a4,80001574 <printhex+0x10>
    80001598:	00010c23          	sb	zero,24(sp)
    8000159c:	f6dff0ef          	jal	80001508 <printstr>
    800015a0:	70a2                	ld	ra,40(sp)
    800015a2:	6145                	add	sp,sp,48
    800015a4:	8082                	ret

00000000800015a6 <printf>:
    800015a6:	711d                	add	sp,sp,-96
    800015a8:	02810313          	add	t1,sp,40
    800015ac:	8e2a                	mv	t3,a0
    800015ae:	f42e                	sd	a1,40(sp)
    800015b0:	f832                	sd	a2,48(sp)
    800015b2:	fc36                	sd	a3,56(sp)
    800015b4:	00000517          	auipc	a0,0x0
    800015b8:	e6850513          	add	a0,a0,-408 # 8000141c <putchar>
    800015bc:	869a                	mv	a3,t1
    800015be:	8672                	mv	a2,t3
    800015c0:	4581                	li	a1,0
    800015c2:	ec06                	sd	ra,24(sp)
    800015c4:	e0ba                	sd	a4,64(sp)
    800015c6:	e4be                	sd	a5,72(sp)
    800015c8:	e8c2                	sd	a6,80(sp)
    800015ca:	ecc6                	sd	a7,88(sp)
    800015cc:	e41a                	sd	t1,8(sp)
    800015ce:	b69ff0ef          	jal	80001136 <vprintfmt>
    800015d2:	60e2                	ld	ra,24(sp)
    800015d4:	4501                	li	a0,0
    800015d6:	6125                	add	sp,sp,96
    800015d8:	8082                	ret

00000000800015da <sprintf>:
    800015da:	711d                	add	sp,sp,-96
    800015dc:	03010313          	add	t1,sp,48
    800015e0:	f022                	sd	s0,32(sp)
    800015e2:	e42a                	sd	a0,8(sp)
    800015e4:	f832                	sd	a2,48(sp)
    800015e6:	fc36                	sd	a3,56(sp)
    800015e8:	842a                	mv	s0,a0
    800015ea:	862e                	mv	a2,a1
    800015ec:	00000517          	auipc	a0,0x0
    800015f0:	e2250513          	add	a0,a0,-478 # 8000140e <sprintf_putch.0>
    800015f4:	002c                	add	a1,sp,8
    800015f6:	869a                	mv	a3,t1
    800015f8:	f406                	sd	ra,40(sp)
    800015fa:	e4be                	sd	a5,72(sp)
    800015fc:	e0ba                	sd	a4,64(sp)
    800015fe:	e8c2                	sd	a6,80(sp)
    80001600:	ecc6                	sd	a7,88(sp)
    80001602:	ec1a                	sd	t1,24(sp)
    80001604:	b33ff0ef          	jal	80001136 <vprintfmt>
    80001608:	67a2                	ld	a5,8(sp)
    8000160a:	00078023          	sb	zero,0(a5)
    8000160e:	6522                	ld	a0,8(sp)
    80001610:	70a2                	ld	ra,40(sp)
    80001612:	9d01                	subw	a0,a0,s0
    80001614:	7402                	ld	s0,32(sp)
    80001616:	6125                	add	sp,sp,96
    80001618:	8082                	ret

000000008000161a <memcpy>:
    8000161a:	00b567b3          	or	a5,a0,a1
    8000161e:	8fd1                	or	a5,a5,a2
    80001620:	8b9d                	and	a5,a5,7
    80001622:	00c506b3          	add	a3,a0,a2
    80001626:	cf91                	beqz	a5,80001642 <memcpy+0x28>
    80001628:	962e                	add	a2,a2,a1
    8000162a:	87aa                	mv	a5,a0
    8000162c:	02d57663          	bgeu	a0,a3,80001658 <memcpy+0x3e>
    80001630:	0005c703          	lbu	a4,0(a1)
    80001634:	0585                	add	a1,a1,1
    80001636:	0785                	add	a5,a5,1
    80001638:	fee78fa3          	sb	a4,-1(a5)
    8000163c:	feb61ae3          	bne	a2,a1,80001630 <memcpy+0x16>
    80001640:	8082                	ret
    80001642:	fed57fe3          	bgeu	a0,a3,80001640 <memcpy+0x26>
    80001646:	87aa                	mv	a5,a0
    80001648:	6198                	ld	a4,0(a1)
    8000164a:	07a1                	add	a5,a5,8
    8000164c:	05a1                	add	a1,a1,8
    8000164e:	fee7bc23          	sd	a4,-8(a5)
    80001652:	fed7ebe3          	bltu	a5,a3,80001648 <memcpy+0x2e>
    80001656:	8082                	ret
    80001658:	8082                	ret

000000008000165a <memset>:
    8000165a:	00c567b3          	or	a5,a0,a2
    8000165e:	8b9d                	and	a5,a5,7
    80001660:	962a                	add	a2,a2,a0
    80001662:	0ff5f713          	zext.b	a4,a1
    80001666:	cb91                	beqz	a5,8000167a <memset+0x20>
    80001668:	87aa                	mv	a5,a0
    8000166a:	02c57763          	bgeu	a0,a2,80001698 <memset+0x3e>
    8000166e:	0785                	add	a5,a5,1
    80001670:	fee78fa3          	sb	a4,-1(a5)
    80001674:	fec79de3          	bne	a5,a2,8000166e <memset+0x14>
    80001678:	8082                	ret
    8000167a:	00003797          	auipc	a5,0x3
    8000167e:	1d67b783          	ld	a5,470(a5) # 80004850 <input1_data+0x1000>
    80001682:	02f70733          	mul	a4,a4,a5
    80001686:	fec579e3          	bgeu	a0,a2,80001678 <memset+0x1e>
    8000168a:	87aa                	mv	a5,a0
    8000168c:	07a1                	add	a5,a5,8
    8000168e:	fee7bc23          	sd	a4,-8(a5)
    80001692:	fec7ede3          	bltu	a5,a2,8000168c <memset+0x32>
    80001696:	8082                	ret
    80001698:	8082                	ret

000000008000169a <_init>:
    8000169a:	7171                	add	sp,sp,-176
    8000169c:	00004797          	auipc	a5,0x4
    800016a0:	38c78793          	add	a5,a5,908 # 80005a28 <_tdata_begin>
    800016a4:	e152                	sd	s4,128(sp)
    800016a6:	00004a17          	auipc	s4,0x4
    800016aa:	382a0a13          	add	s4,s4,898 # 80005a28 <_tdata_begin>
    800016ae:	e54e                	sd	s3,136(sp)
    800016b0:	40fa09b3          	sub	s3,s4,a5
    800016b4:	ed26                	sd	s1,152(sp)
    800016b6:	e94a                	sd	s2,144(sp)
    800016b8:	84aa                	mv	s1,a0
    800016ba:	892e                	mv	s2,a1
    800016bc:	8512                	mv	a0,tp
    800016be:	85be                	mv	a1,a5
    800016c0:	864e                	mv	a2,s3
    800016c2:	f506                	sd	ra,168(sp)
    800016c4:	f122                	sd	s0,160(sp)
    800016c6:	fcd6                	sd	s5,120(sp)
    800016c8:	8a92                	mv	s5,tp
    800016ca:	f51ff0ef          	jal	8000161a <memcpy>
    800016ce:	00004617          	auipc	a2,0x4
    800016d2:	3f660613          	add	a2,a2,1014 # 80005ac4 <_tbss_end>
    800016d6:	41460633          	sub	a2,a2,s4
    800016da:	4581                	li	a1,0
    800016dc:	013a8533          	add	a0,s5,s3
    800016e0:	f7bff0ef          	jal	8000165a <memset>
    800016e4:	85ca                	mv	a1,s2
    800016e6:	8526                	mv	a0,s1
    800016e8:	9e1ff0ef          	jal	800010c8 <thread_entry>
    800016ec:	4581                	li	a1,0
    800016ee:	4501                	li	a0,0
    800016f0:	146000ef          	jal	80001836 <main>
    800016f4:	00004917          	auipc	s2,0x4
    800016f8:	31490913          	add	s2,s2,788 # 80005a08 <counters>
    800016fc:	00093683          	ld	a3,0(s2)
    80001700:	03f10413          	add	s0,sp,63
    80001704:	fc047413          	and	s0,s0,-64
    80001708:	84aa                	mv	s1,a0
    8000170a:	ea85                	bnez	a3,8000173a <_init+0xa0>
    8000170c:	00893683          	ld	a3,8(s2)
    80001710:	e681                	bnez	a3,80001718 <_init+0x7e>
    80001712:	8526                	mv	a0,s1
    80001714:	dbdff0ef          	jal	800014d0 <tohost_exit>
    80001718:	89a2                	mv	s3,s0
    8000171a:	01893603          	ld	a2,24(s2)
    8000171e:	854e                	mv	a0,s3
    80001720:	00003597          	auipc	a1,0x3
    80001724:	17858593          	add	a1,a1,376 # 80004898 <input1_data+0x1048>
    80001728:	eb3ff0ef          	jal	800015da <sprintf>
    8000172c:	99aa                	add	s3,s3,a0
    8000172e:	ff3402e3          	beq	s0,s3,80001712 <_init+0x78>
    80001732:	8522                	mv	a0,s0
    80001734:	dd5ff0ef          	jal	80001508 <printstr>
    80001738:	bfe9                	j	80001712 <_init+0x78>
    8000173a:	01093603          	ld	a2,16(s2)
    8000173e:	00003597          	auipc	a1,0x3
    80001742:	15a58593          	add	a1,a1,346 # 80004898 <input1_data+0x1048>
    80001746:	8522                	mv	a0,s0
    80001748:	e93ff0ef          	jal	800015da <sprintf>
    8000174c:	00893683          	ld	a3,8(s2)
    80001750:	00a409b3          	add	s3,s0,a0
    80001754:	dee9                	beqz	a3,8000172e <_init+0x94>
    80001756:	b7d1                	j	8000171a <_init+0x80>

0000000080001758 <strlen>:
    80001758:	00054783          	lbu	a5,0(a0)
    8000175c:	cb89                	beqz	a5,8000176e <strlen+0x16>
    8000175e:	87aa                	mv	a5,a0
    80001760:	0017c703          	lbu	a4,1(a5)
    80001764:	0785                	add	a5,a5,1
    80001766:	ff6d                	bnez	a4,80001760 <strlen+0x8>
    80001768:	40a78533          	sub	a0,a5,a0
    8000176c:	8082                	ret
    8000176e:	4501                	li	a0,0
    80001770:	8082                	ret

0000000080001772 <strnlen>:
    80001772:	00b506b3          	add	a3,a0,a1
    80001776:	87aa                	mv	a5,a0
    80001778:	e589                	bnez	a1,80001782 <strnlen+0x10>
    8000177a:	a829                	j	80001794 <strnlen+0x22>
    8000177c:	0785                	add	a5,a5,1
    8000177e:	00f68863          	beq	a3,a5,8000178e <strnlen+0x1c>
    80001782:	0007c703          	lbu	a4,0(a5)
    80001786:	fb7d                	bnez	a4,8000177c <strnlen+0xa>
    80001788:	40a78533          	sub	a0,a5,a0
    8000178c:	8082                	ret
    8000178e:	40a68533          	sub	a0,a3,a0
    80001792:	8082                	ret
    80001794:	4501                	li	a0,0
    80001796:	8082                	ret

0000000080001798 <strcmp>:
    80001798:	00054783          	lbu	a5,0(a0)
    8000179c:	0585                	add	a1,a1,1
    8000179e:	0505                	add	a0,a0,1
    800017a0:	fff5c703          	lbu	a4,-1(a1)
    800017a4:	c799                	beqz	a5,800017b2 <strcmp+0x1a>
    800017a6:	fee789e3          	beq	a5,a4,80001798 <strcmp>
    800017aa:	0007851b          	sext.w	a0,a5
    800017ae:	9d19                	subw	a0,a0,a4
    800017b0:	8082                	ret
    800017b2:	4501                	li	a0,0
    800017b4:	bfed                	j	800017ae <strcmp+0x16>

00000000800017b6 <strcpy>:
    800017b6:	87aa                	mv	a5,a0
    800017b8:	0005c703          	lbu	a4,0(a1)
    800017bc:	0785                	add	a5,a5,1
    800017be:	0585                	add	a1,a1,1
    800017c0:	fee78fa3          	sb	a4,-1(a5)
    800017c4:	fb75                	bnez	a4,800017b8 <strcpy+0x2>
    800017c6:	8082                	ret

00000000800017c8 <atol>:
    800017c8:	00054703          	lbu	a4,0(a0)
    800017cc:	02000693          	li	a3,32
    800017d0:	87aa                	mv	a5,a0
    800017d2:	00d71763          	bne	a4,a3,800017e0 <atol+0x18>
    800017d6:	0017c703          	lbu	a4,1(a5)
    800017da:	0785                	add	a5,a5,1
    800017dc:	fed70de3          	beq	a4,a3,800017d6 <atol+0xe>
    800017e0:	02d00693          	li	a3,45
    800017e4:	04d70263          	beq	a4,a3,80001828 <atol+0x60>
    800017e8:	02b00693          	li	a3,43
    800017ec:	02d70763          	beq	a4,a3,8000181a <atol+0x52>
    800017f0:	0007c683          	lbu	a3,0(a5)
    800017f4:	4581                	li	a1,0
    800017f6:	c69d                	beqz	a3,80001824 <atol+0x5c>
    800017f8:	4501                	li	a0,0
    800017fa:	0785                	add	a5,a5,1
    800017fc:	00251713          	sll	a4,a0,0x2
    80001800:	fd06861b          	addw	a2,a3,-48
    80001804:	0007c683          	lbu	a3,0(a5)
    80001808:	972a                	add	a4,a4,a0
    8000180a:	0706                	sll	a4,a4,0x1
    8000180c:	00e60533          	add	a0,a2,a4
    80001810:	f6ed                	bnez	a3,800017fa <atol+0x32>
    80001812:	c991                	beqz	a1,80001826 <atol+0x5e>
    80001814:	40a00533          	neg	a0,a0
    80001818:	8082                	ret
    8000181a:	0017c683          	lbu	a3,1(a5)
    8000181e:	4581                	li	a1,0
    80001820:	0785                	add	a5,a5,1
    80001822:	faf9                	bnez	a3,800017f8 <atol+0x30>
    80001824:	4501                	li	a0,0
    80001826:	8082                	ret
    80001828:	0017c683          	lbu	a3,1(a5)
    8000182c:	4585                	li	a1,1
    8000182e:	0785                	add	a5,a5,1
    80001830:	f6e1                	bnez	a3,800017f8 <atol+0x30>
    80001832:	4501                	li	a0,0
    80001834:	bfcd                	j	80001826 <atol+0x5e>

Disassembly of section .text.startup:

0000000080001836 <main>:
    80001836:	1141                	add	sp,sp,-16
    80001838:	00003517          	auipc	a0,0x3
    8000183c:	04850513          	add	a0,a0,72 # 80004880 <input1_data+0x1030>
    80001840:	e406                	sd	ra,8(sp)
    80001842:	cc7ff0ef          	jal	80001508 <printstr>
    80001846:	60a2                	ld	ra,8(sp)
    80001848:	557d                	li	a0,-1
    8000184a:	0141                	add	sp,sp,16
    8000184c:	8082                	ret
